target datalayout = "e-m:e-p270:32:32-p271:32:32-p272:64:64-i64:64-i128:128-f80:128-n8:16:32:64-S128"
target triple = "x86_64-pc-linux-gnu"

%struct.jv = type { i8, i8, i16, i32, %union.anon }
%union.anon = type { ptr }

@.str.162 = private unnamed_addr constant [42 x i8] c"split input and separator must be strings\00", align 1

; Function Attrs: inlinehint nounwind uwtable
define internal { i64, ptr } @ret_error2(i64 %0, ptr %1, i64 %2, ptr %3, i64 %4, ptr %5) #7 {
  %7 = alloca %struct.jv, align 8
  %8 = alloca %struct.jv, align 8
  %9 = alloca %struct.jv, align 8
  %10 = alloca %struct.jv, align 8
  %11 = getelementptr inbounds nuw { i64, ptr }, ptr %8, i32 0, i32 0
  store i64 %0, ptr %11, align 8
  %12 = getelementptr inbounds nuw { i64, ptr }, ptr %8, i32 0, i32 1
  store ptr %1, ptr %12, align 8
  %13 = getelementptr inbounds nuw { i64, ptr }, ptr %9, i32 0, i32 0
  store i64 %2, ptr %13, align 8
  %14 = getelementptr inbounds nuw { i64, ptr }, ptr %9, i32 0, i32 1
  store ptr %3, ptr %14, align 8
  %15 = getelementptr inbounds nuw { i64, ptr }, ptr %10, i32 0, i32 0
  store i64 %4, ptr %15, align 8
  %16 = getelementptr inbounds nuw { i64, ptr }, ptr %10, i32 0, i32 1
  store ptr %5, ptr %16, align 8
  %17 = getelementptr inbounds nuw { i64, ptr }, ptr %8, i32 0, i32 0
  %18 = load i64, ptr %17, align 8
  %19 = getelementptr inbounds nuw { i64, ptr }, ptr %8, i32 0, i32 1
  %20 = load ptr, ptr %19, align 8
  call void @jv_free(i64 %18, ptr %20)
  %21 = getelementptr inbounds nuw { i64, ptr }, ptr %9, i32 0, i32 0
  %22 = load i64, ptr %21, align 8
  %23 = getelementptr inbounds nuw { i64, ptr }, ptr %9, i32 0, i32 1
  %24 = load ptr, ptr %23, align 8
  call void @jv_free(i64 %22, ptr %24)
  %25 = getelementptr inbounds nuw { i64, ptr }, ptr %10, i32 0, i32 0
  %26 = load i64, ptr %25, align 8
  %27 = getelementptr inbounds nuw { i64, ptr }, ptr %10, i32 0, i32 1
  %28 = load ptr, ptr %27, align 8
  %29 = call { i64, ptr } @jv_invalid_with_msg(i64 %26, ptr %28)
  %30 = getelementptr inbounds nuw { i64, ptr }, ptr %7, i32 0, i32 0
  %31 = extractvalue { i64, ptr } %29, 0
  store i64 %31, ptr %30, align 8
  %32 = getelementptr inbounds nuw { i64, ptr }, ptr %7, i32 0, i32 1
  %33 = extractvalue { i64, ptr } %29, 1
  store ptr %33, ptr %32, align 8
  %34 = load { i64, ptr }, ptr %7, align 8
  ret { i64, ptr } %34
}

; Function Attrs: nounwind uwtable
define internal { i64, ptr } @f_string_split(ptr noundef %0, i64 %1, ptr %2, i64 %3, ptr %4) #0 {
  %6 = alloca %struct.jv, align 8
  %7 = alloca %struct.jv, align 8
  %8 = alloca %struct.jv, align 8
  %9 = alloca ptr, align 8
  %10 = alloca %struct.jv, align 8
  %11 = getelementptr inbounds nuw { i64, ptr }, ptr %7, i32 0, i32 0
  store i64 %1, ptr %11, align 8
  %12 = getelementptr inbounds nuw { i64, ptr }, ptr %7, i32 0, i32 1
  store ptr %2, ptr %12, align 8
  %13 = getelementptr inbounds nuw { i64, ptr }, ptr %8, i32 0, i32 0
  store i64 %3, ptr %13, align 8
  %14 = getelementptr inbounds nuw { i64, ptr }, ptr %8, i32 0, i32 1
  store ptr %4, ptr %14, align 8
  store ptr %0, ptr %9, align 8, !tbaa !25
  %15 = getelementptr inbounds nuw { i64, ptr }, ptr %7, i32 0, i32 0
  %16 = load i64, ptr %15, align 8
  %17 = getelementptr inbounds nuw { i64, ptr }, ptr %7, i32 0, i32 1
  %18 = load ptr, ptr %17, align 8
  %19 = call i32 @jv_get_kind(i64 %16, ptr %18)
  %20 = icmp ne i32 %19, 5
  br i1 %20, label %28, label %21

21:                                               ; preds = %5
  %22 = getelementptr inbounds nuw { i64, ptr }, ptr %8, i32 0, i32 0
  %23 = load i64, ptr %22, align 8
  %24 = getelementptr inbounds nuw { i64, ptr }, ptr %8, i32 0, i32 1
  %25 = load ptr, ptr %24, align 8
  %26 = call i32 @jv_get_kind(i64 %23, ptr %25)
  %27 = icmp ne i32 %26, 5
  br i1 %27, label %28, label %51

28:                                               ; preds = %21, %5
  %29 = call { i64, ptr } @jv_string(ptr noundef @.str.162)
  %30 = getelementptr inbounds nuw { i64, ptr }, ptr %10, i32 0, i32 0
  %31 = extractvalue { i64, ptr } %29, 0
  store i64 %31, ptr %30, align 8
  %32 = getelementptr inbounds nuw { i64, ptr }, ptr %10, i32 0, i32 1
  %33 = extractvalue { i64, ptr } %29, 1
  store ptr %33, ptr %32, align 8
  %34 = getelementptr inbounds nuw { i64, ptr }, ptr %7, i32 0, i32 0
  %35 = load i64, ptr %34, align 8
  %36 = getelementptr inbounds nuw { i64, ptr }, ptr %7, i32 0, i32 1
  %37 = load ptr, ptr %36, align 8
  %38 = getelementptr inbounds nuw { i64, ptr }, ptr %8, i32 0, i32 0
  %39 = load i64, ptr %38, align 8
  %40 = getelementptr inbounds nuw { i64, ptr }, ptr %8, i32 0, i32 1
  %41 = load ptr, ptr %40, align 8
  %42 = getelementptr inbounds nuw { i64, ptr }, ptr %10, i32 0, i32 0
  %43 = load i64, ptr %42, align 8
  %44 = getelementptr inbounds nuw { i64, ptr }, ptr %10, i32 0, i32 1
  %45 = load ptr, ptr %44, align 8
  %46 = call { i64, ptr } @ret_error2(i64 %35, ptr %37, i64 %39, ptr %41, i64 %43, ptr %45)
  %47 = getelementptr inbounds nuw { i64, ptr }, ptr %6, i32 0, i32 0
  %48 = extractvalue { i64, ptr } %46, 0
  store i64 %48, ptr %47, align 8
  %49 = getelementptr inbounds nuw { i64, ptr }, ptr %6, i32 0, i32 1
  %50 = extractvalue { i64, ptr } %46, 1
  store ptr %50, ptr %49, align 8
  br label %65

51:                                               ; preds = %21
  %52 = getelementptr inbounds nuw { i64, ptr }, ptr %7, i32 0, i32 0
  %53 = load i64, ptr %52, align 8
  %54 = getelementptr inbounds nuw { i64, ptr }, ptr %7, i32 0, i32 1
  %55 = load ptr, ptr %54, align 8
  %56 = getelementptr inbounds nuw { i64, ptr }, ptr %8, i32 0, i32 0
  %57 = load i64, ptr %56, align 8
  %58 = getelementptr inbounds nuw { i64, ptr }, ptr %8, i32 0, i32 1
  %59 = load ptr, ptr %58, align 8
  %60 = call { i64, ptr } @jv_string_split(i64 %53, ptr %55, i64 %57, ptr %59)
  %61 = getelementptr inbounds nuw { i64, ptr }, ptr %6, i32 0, i32 0
  %62 = extractvalue { i64, ptr } %60, 0
  store i64 %62, ptr %61, align 8
  %63 = getelementptr inbounds nuw { i64, ptr }, ptr %6, i32 0, i32 1
  %64 = extractvalue { i64, ptr } %60, 1
  store ptr %64, ptr %63, align 8
  br label %65

65:                                               ; preds = %51, %28
  %66 = load { i64, ptr }, ptr %6, align 8
  ret { i64, ptr } %66
}