; Function Attrs: nounwind uwtable
define internal { i64, ptr } @f_string_split(ptr readnone captures(none) %0, i64 %1, ptr %2, i64 %3, ptr %4) #0 {
  %6 = tail call i32 @jv_get_kind(i64 %1, ptr %2) #14
  %.not = icmp eq i32 %6, 5
  br i1 %.not, label %7, label %9

7:                                                ; preds = %5
  %8 = tail call i32 @jv_get_kind(i64 %3, ptr %4) #14
  %.not13 = icmp eq i32 %8, 5
  br i1 %.not13, label %14, label %9

9:                                                ; preds = %7, %5
  %10 = tail call { i64, ptr } @jv_string(ptr noundef nonnull @.str.162) #14
  %11 = extractvalue { i64, ptr } %10, 0
  %12 = extractvalue { i64, ptr } %10, 1
  tail call void @jv_free(i64 %1, ptr %2) #14
  tail call void @jv_free(i64 %3, ptr %4) #14
  %13 = tail call { i64, ptr } @jv_invalid_with_msg(i64 %11, ptr %12) #14
  br label %16

14:                                               ; preds = %7
  %15 = tail call { i64, ptr } @jv_string_split(i64 %1, ptr %2, i64 %3, ptr %4) #14
  br label %16

16:                                               ; preds = %14, %9
  %.pn = phi { i64, ptr } [ %13, %9 ], [ %15, %14 ]
  ret { i64, ptr } %.pn
}